target datalayout = "e-m:e-p270:32:32-p271:32:32-p272:64:64-i64:64-i128:128-f80:128-n8:16:32:64-S128"
target triple = "x86_64-pc-linux-gnu"

%struct.STable = type { i32, i32, i32, ptr }
%struct.SEntry = type { ptr, ptr }

; Function Attrs: nounwind uwtable
define internal ptr @sentry_find(ptr noundef %0, i32 noundef %1, ptr noundef %2) #0 {
  %4 = alloca ptr, align 8
  %5 = alloca i32, align 4
  %6 = alloca ptr, align 8
  %7 = alloca i64, align 8
  %8 = alloca i32, align 4
  %9 = alloca i32, align 4
  %10 = alloca ptr, align 8
  store ptr %0, ptr %4, align 8
  store i32 %1, ptr %5, align 4
  store ptr %2, ptr %6, align 8
  %11 = load ptr, ptr %6, align 8
  %12 = ptrtoint ptr %11 to i64
  store i64 %12, ptr %7, align 8
  %13 = load i32, ptr %5, align 4
  %14 = sub i32 %13, 1
  store i32 %14, ptr %8, align 4
  %15 = load i64, ptr %7, align 8
  %16 = lshr i64 %15, 16
  %17 = load i64, ptr %7, align 8
  %18 = xor i64 %17, %16
  store i64 %18, ptr %7, align 8
  %19 = load i64, ptr %7, align 8
  %20 = trunc i64 %19 to i32
  %21 = load i32, ptr %8, align 4
  %22 = and i32 %20, %21
  store i32 %22, ptr %9, align 4
  br label %23

23:                                               ; preds = %40, %3
  %24 = load ptr, ptr %4, align 8
  %25 = load i32, ptr %9, align 4
  %26 = zext i32 %25 to i64
  %27 = getelementptr inbounds %struct.SEntry, ptr %24, i64 %26
  store ptr %27, ptr %10, align 8
  %28 = load ptr, ptr %10, align 8
  %29 = getelementptr inbounds %struct.SEntry, ptr %28, i32 0, i32 0
  %30 = load ptr, ptr %29, align 8
  %31 = load ptr, ptr %6, align 8
  %32 = icmp eq ptr %30, %31
  br i1 %32, label %38, label %33

33:                                               ; preds = %23
  %34 = load ptr, ptr %10, align 8
  %35 = getelementptr inbounds %struct.SEntry, ptr %34, i32 0, i32 0
  %36 = load ptr, ptr %35, align 8
  %37 = icmp ne ptr %36, null
  br i1 %37, label %40, label %38

38:                                               ; preds = %33, %23
  %39 = load ptr, ptr %10, align 8
  ret ptr %39

40:                                               ; preds = %33
  %41 = load i32, ptr %9, align 4
  %42 = add i32 %41, 1
  %43 = load i32, ptr %8, align 4
  %44 = and i32 %42, %43
  store i32 %44, ptr %9, align 4
  br label %23
}

; Function Attrs: nounwind uwtable
define dso_local ptr @stable_get(ptr noundef %0, ptr noundef %1) #0 {
  %3 = alloca ptr, align 8
  %4 = alloca ptr, align 8
  %5 = alloca ptr, align 8
  %6 = alloca ptr, align 8
  store ptr %0, ptr %4, align 8
  store ptr %1, ptr %5, align 8
  %7 = load ptr, ptr %4, align 8
  %8 = getelementptr inbounds %struct.STable, ptr %7, i32 0, i32 3
  %9 = load ptr, ptr %8, align 8
  %10 = icmp ne ptr %9, null
  br i1 %10, label %12, label %11

11:                                               ; preds = %2
  store ptr null, ptr %3, align 8
  br label %32

12:                                               ; preds = %2
  %13 = load ptr, ptr %4, align 8
  %14 = getelementptr inbounds %struct.STable, ptr %13, i32 0, i32 3
  %15 = load ptr, ptr %14, align 8
  %16 = load ptr, ptr %4, align 8
  %17 = getelementptr inbounds %struct.STable, ptr %16, i32 0, i32 1
  %18 = load i32, ptr %17, align 4
  %19 = load ptr, ptr %5, align 8
  %20 = call ptr @sentry_find(ptr noundef %15, i32 noundef %18, ptr noundef %19)
  store ptr %20, ptr %6, align 8
  %21 = load ptr, ptr %6, align 8
  %22 = getelementptr inbounds %struct.SEntry, ptr %21, i32 0, i32 0
  %23 = load ptr, ptr %22, align 8
  %24 = icmp eq ptr %23, null
  br i1 %24, label %25, label %26

25:                                               ; preds = %12
  br label %30

26:                                               ; preds = %12
  %27 = load ptr, ptr %6, align 8
  %28 = getelementptr inbounds %struct.SEntry, ptr %27, i32 0, i32 1
  %29 = load ptr, ptr %28, align 8
  br label %30

30:                                               ; preds = %26, %25
  %31 = phi ptr [ null, %25 ], [ %29, %26 ]
  store ptr %31, ptr %3, align 8
  br label %32

32:                                               ; preds = %30, %11
  %33 = load ptr, ptr %3, align 8
  ret ptr %33
}