; Function Attrs: nofree norecurse nosync nounwind memory(read, inaccessiblemem: none) uwtable
define dso_local ptr @stable_get(ptr nocapture noundef readonly %0, ptr noundef %1) local_unnamed_addr #9 {
  %3 = getelementptr inbounds i8, ptr %0, i64 16
  %4 = load ptr, ptr %3, align 8
  %.not = icmp eq ptr %4, null
  br i1 %.not, label %30, label %5

5:                                                ; preds = %2
  %6 = getelementptr inbounds i8, ptr %0, i64 4
  %7 = load i32, ptr %6, align 4
  %8 = ptrtoint ptr %1 to i64
  %9 = add i32 %7, -1
  %10 = lshr i64 %8, 16
  %11 = xor i64 %10, %8
  %12 = trunc i64 %11 to i32
  %13 = and i32 %9, %12
  %14 = zext i32 %13 to i64
  %15 = getelementptr inbounds %struct.SEntry, ptr %4, i64 %14
  %16 = load ptr, ptr %15, align 8
  %17 = icmp eq ptr %16, %1
  %.not14.i = icmp eq ptr %16, null
  %or.cond15.i = or i1 %17, %.not14.i
  br i1 %or.cond15.i, label %sentry_find.exit, label %.lr.ph.i

.lr.ph.i:                                         ; preds = %5, %.lr.ph.i
  %.016.i = phi i32 [ %19, %.lr.ph.i ], [ %13, %5 ]
  %18 = add i32 %.016.i, 1
  %19 = and i32 %18, %9
  %20 = zext i32 %19 to i64
  %21 = getelementptr inbounds %struct.SEntry, ptr %4, i64 %20
  %22 = load ptr, ptr %21, align 8
  %23 = icmp eq ptr %22, %1
  %.not.i = icmp eq ptr %22, null
  %or.cond.i = or i1 %23, %.not.i
  br i1 %or.cond.i, label %sentry_find.exit, label %.lr.ph.i

sentry_find.exit:                                 ; preds = %.lr.ph.i, %5
  %24 = phi ptr [ %16, %5 ], [ %22, %.lr.ph.i ]
  %25 = phi i64 [ %14, %5 ], [ %20, %.lr.ph.i ]
  %26 = icmp eq ptr %24, null
  br i1 %26, label %30, label %27

27:                                               ; preds = %sentry_find.exit
  %28 = getelementptr inbounds %struct.SEntry, ptr %4, i64 %25, i32 1
  %29 = load ptr, ptr %28, align 8
  br label %30

30:                                               ; preds = %27, %sentry_find.exit, %2
  %.0 = phi ptr [ null, %2 ], [ %29, %27 ], [ null, %sentry_find.exit ]
  ret ptr %.0
}